; create from existing DLM file (taken from the 64bit max installation) via
; dumpbin /exports Morpher.dlm
; lib /def:Morpher_x86.def /machine:x86 /out:morpher_x86.lib

LIBRARY Morpher.dlm
EXPORTS
    ??4morphChannel@@QAEXABV0@@Z
    ?AddProgessiveMorph@IMorphClass@@QAEHPAVMorphR3@@HPAVINode@@@Z
    ?AllocBuffers@morphChannel@@QAEXHH@Z
    ?AreWeCached@morphCache@@QAEHXZ
    ?ChannelOp@MorphR3@@QAEXHHH@Z
    ?Clamp_chanNum@MorphR3@@QAEXXZ
    ?Clamp_listSel@M3MatDlg@@QAEXXZ
    ?DeleteProgessiveMorph@IMorphClass@@QAEHPAVMorphR3@@HH@Z
    ?EnterMode@GetMorphMod@@UAEXXZ
    ?EnterMode@GetMorphNode@@UAEXPAVIObjParam@@@Z
    ?ExitMode@GetMorphMod@@UAEXXZ
    ?ExitMode@GetMorphNode@@UAEXPAVIObjParam@@@Z
    ?Filter@GetMorphMod@@UAEHPAVINode@@@Z
    ?Filter@GetMorphNode@@UAEHPAVINode@@@Z
    ?GetFilter@GetMorphNode@@UAEPAVPickNodeCallback@@XZ
    ?GetIncrements@MorphR3@@QAEMXZ
    ?HitTest@GetMorphNode@@UAEHPAVIObjParam@@PAUHWND__@@PAVViewExp@@VIPoint2@@H@Z
    ?HoldChannel@IMorphClass@@QAEXPAVMorphR3@@H@Z
    ?HoldMarkers@IMorphClass@@QAEXPAVMorphR3@@@Z
    ?Load@morphChannel@@QAE?AW4IOResult@@PAVILoad@@@Z
    ?MakeCache@morphCache@@QAEXPAVObject@@@Z
    ?NukeCache@morphCache@@QAEXXZ
    ?Pick@GetMorphMod@@UAEHPAVINode@@@Z
    ?Pick@GetMorphNode@@UAEHPAVIObjParam@@PAVViewExp@@@Z
    ?ResetMe@morphChannel@@QAEXXZ
    ?RightClick@GetMorphNode@@UAEHPAVIObjParam@@PAVViewExp@@@Z
    ?Save@morphChannel@@QAE?AW4IOResult@@PAVISave@@@Z
    ?SetTension@IMorphClass@@QAEXPAVMorphR3@@HM@Z
    ?SortProgressiveTarget@IMorphClass@@QAEXPAVMorphR3@@HH@Z
    ?SwapMorphs@IMorphClass@@QAEXPAVMorphR3@@HHH@Z
    ?SwapPTargets@IMorphClass@@QAEXPAVMorphR3@@HHH_N@Z
    ?TrimDown@MorphR3@@QAEMMH@Z
    ?UpdateMorphInfo@M3MatDlg@@QAEXH@Z
    ?Update_SpinnerIncrements@MorphR3@@QAEXXZ
    ?Update_channelFULL@MorphR3@@QAEXXZ
    ?Update_channelInfo@MorphR3@@QAEXXZ
    ?Update_channelLimits@MorphR3@@QAEXXZ
    ?Update_channelMarkers@MorphR3@@QAEXXZ
    ?Update_channelNames@MorphR3@@QAEXXZ
    ?Update_channelParams@MorphR3@@QAEXXZ
    ?Update_channelValues@MorphR3@@QAEXXZ
    ?Update_colorIndicators@MorphR3@@QAEXXZ
    ?VScroll@M3MatDlg@@QAEXHF@Z
    ?VScroll@MorphR3@@QAEXHF@Z
    ?buildFromNode@morphChannel@@QAEXPAVINode@@HHH@Z
    ?getMemSize@morphChannel@@QAEMXZ
    ?rebuildChannel@morphChannel@@QAEXXZ
    CanAutoDefer
    LibClassDesc
    LibDescription
    LibNumberClasses
    LibVersion
