; create from existing DLM file (taken from the 64bit max installation) via
; dumpbin /exports Morpher.dlm
; lib /def:Morpher_x64.def /machine:x64 /out:morpher_x64.lib

LIBRARY Morpher.dlm
EXPORTS
    ??4morphChannel@@QEAAXAEBV0@@Z
    ?AddProgessiveMorph@IMorphClass@@QEAAHPEAVMorphR3@@HPEAVINode@@@Z
    ?AllocBuffers@morphChannel@@QEAAXHH@Z
    ?AreWeCached@morphCache@@QEAAHXZ
    ?ChannelOp@MorphR3@@QEAAXHHH@Z
    ?Clamp_chanNum@MorphR3@@QEAAXXZ
    ?Clamp_listSel@M3MatDlg@@QEAAXXZ
    ?DeleteProgessiveMorph@IMorphClass@@QEAAHPEAVMorphR3@@HH@Z
    ?EnterMode@GetMorphMod@@UEAAXXZ
    ?EnterMode@GetMorphNode@@UEAAXPEAVIObjParam@@@Z
    ?ExitMode@GetMorphMod@@UEAAXXZ
    ?ExitMode@GetMorphNode@@UEAAXPEAVIObjParam@@@Z
    ?Filter@GetMorphMod@@UEAAHPEAVINode@@@Z
    ?Filter@GetMorphNode@@UEAAHPEAVINode@@@Z
    ?GetFilter@GetMorphNode@@UEAAPEAVPickNodeCallback@@XZ
    ?GetIncrements@MorphR3@@QEAAMXZ
    ?HitTest@GetMorphNode@@UEAAHPEAVIObjParam@@PEAUHWND__@@PEAVViewExp@@VIPoint2@@H@Z
    ?HoldChannel@IMorphClass@@QEAAXPEAVMorphR3@@H@Z
    ?HoldMarkers@IMorphClass@@QEAAXPEAVMorphR3@@@Z
    ?Load@morphChannel@@QEAA?AW4IOResult@@PEAVILoad@@@Z
    ?MakeCache@morphCache@@QEAAXPEAVObject@@@Z
    ?NukeCache@morphCache@@QEAAXXZ
    ?Pick@GetMorphMod@@UEAAHPEAVINode@@@Z
    ?Pick@GetMorphNode@@UEAAHPEAVIObjParam@@PEAVViewExp@@@Z
    ?ResetMe@morphChannel@@QEAAXXZ
    ?RightClick@GetMorphNode@@UEAAHPEAVIObjParam@@PEAVViewExp@@@Z
    ?Save@morphChannel@@QEAA?AW4IOResult@@PEAVISave@@@Z
    ?SetTension@IMorphClass@@QEAAXPEAVMorphR3@@HM@Z
    ?SortProgressiveTarget@IMorphClass@@QEAAXPEAVMorphR3@@HH@Z
    ?SwapMorphs@IMorphClass@@QEAAXPEAVMorphR3@@HHH@Z
    ?SwapPTargets@IMorphClass@@QEAAXPEAVMorphR3@@HHH_N@Z
    ?TrimDown@MorphR3@@QEAAMMH@Z
    ?UpdateMorphInfo@M3MatDlg@@QEAAXH@Z
    ?Update_SpinnerIncrements@MorphR3@@QEAAXXZ
    ?Update_channelFULL@MorphR3@@QEAAXXZ
    ?Update_channelInfo@MorphR3@@QEAAXXZ
    ?Update_channelLimits@MorphR3@@QEAAXXZ
    ?Update_channelMarkers@MorphR3@@QEAAXXZ
    ?Update_channelNames@MorphR3@@QEAAXXZ
    ?Update_channelParams@MorphR3@@QEAAXXZ
    ?Update_channelValues@MorphR3@@QEAAXXZ
    ?Update_colorIndicators@MorphR3@@QEAAXXZ
    ?VScroll@M3MatDlg@@QEAAXHF@Z
    ?VScroll@MorphR3@@QEAAXHF@Z
    ?buildFromNode@morphChannel@@QEAAXPEAVINode@@HHH@Z
    ?getMemSize@morphChannel@@QEAAMXZ
    ?rebuildChannel@morphChannel@@QEAAXXZ
    CanAutoDefer
    LibClassDesc
    LibDescription
    LibNumberClasses
    LibVersion
